target datalayout = "e-m:e-p270:32:32-p271:32:32-p272:64:64-i64:64-i128:128-f80:128-n8:16:32:64-S128"
target triple = "x86_64-pc-linux-gnu"

%struct.SurfaceDataRasInfo = type { %struct.SurfaceDataBounds, ptr, i32, i32, i32, i32, ptr, ptr, ptr, ptr, ptr, ptr, i32, %union.anon.0 }
%struct.SurfaceDataBounds = type { i32, i32, i32, i32 }
%union.anon.0 = type { ptr, [56 x i8] }
%struct.SpanIteratorFuncs = type { ptr, ptr, ptr, ptr, ptr, ptr }
%struct._CompositeInfo = type { i32, %union.anon.1, i32 }
%union.anon.1 = type { float }

; Function Attrs: nounwind uwtable
define hidden void @ByteBinary2BitXorSpans(ptr noundef %0, ptr noundef %1, ptr noundef %2, i32 noundef %3, ptr noundef %4, ptr noundef %5) #0 {
  %7 = alloca ptr, align 8
  %8 = alloca ptr, align 8
  %9 = alloca ptr, align 8
  %10 = alloca i32, align 4
  %11 = alloca ptr, align 8
  %12 = alloca ptr, align 8
  %13 = alloca ptr, align 8
  %14 = alloca i32, align 4
  %15 = alloca i32, align 4
  %16 = alloca i32, align 4
  %17 = alloca [4 x i32], align 16
  %18 = alloca i32, align 4
  %19 = alloca i32, align 4
  %20 = alloca i32, align 4
  %21 = alloca i32, align 4
  %22 = alloca ptr, align 8
  %23 = alloca i32, align 4
  %24 = alloca i32, align 4
  %25 = alloca i32, align 4
  %26 = alloca i32, align 4
  %27 = alloca i32, align 4
  store ptr %0, ptr %7, align 8
  store ptr %1, ptr %8, align 8
  store ptr %2, ptr %9, align 8
  store i32 %3, ptr %10, align 4
  store ptr %4, ptr %11, align 8
  store ptr %5, ptr %12, align 8
  %28 = load ptr, ptr %7, align 8
  %29 = getelementptr inbounds %struct.SurfaceDataRasInfo, ptr %28, i32 0, i32 1
  %30 = load ptr, ptr %29, align 8
  store ptr %30, ptr %13, align 8
  %31 = load ptr, ptr %12, align 8
  %32 = getelementptr inbounds %struct._CompositeInfo, ptr %31, i32 0, i32 1
  %33 = load i32, ptr %32, align 4
  store i32 %33, ptr %14, align 4
  %34 = load ptr, ptr %12, align 8
  %35 = getelementptr inbounds %struct._CompositeInfo, ptr %34, i32 0, i32 2
  %36 = load i32, ptr %35, align 4
  store i32 %36, ptr %15, align 4
  %37 = load ptr, ptr %7, align 8
  %38 = getelementptr inbounds %struct.SurfaceDataRasInfo, ptr %37, i32 0, i32 4
  %39 = load i32, ptr %38, align 8
  store i32 %39, ptr %16, align 4
  br label %40

40:                                               ; preds = %145, %6
  %41 = load ptr, ptr %8, align 8
  %42 = getelementptr inbounds %struct.SpanIteratorFuncs, ptr %41, i32 0, i32 4
  %43 = load ptr, ptr %42, align 8
  %44 = load ptr, ptr %9, align 8
  %45 = getelementptr inbounds [4 x i32], ptr %17, i64 0, i64 0
  %46 = call zeroext i8 %43(ptr noundef %44, ptr noundef %45)
  %47 = icmp ne i8 %46, 0
  br i1 %47, label %48, label %146

48:                                               ; preds = %40
  %49 = getelementptr inbounds [4 x i32], ptr %17, i64 0, i64 0
  %50 = load i32, ptr %49, align 16
  store i32 %50, ptr %18, align 4
  %51 = getelementptr inbounds [4 x i32], ptr %17, i64 0, i64 1
  %52 = load i32, ptr %51, align 4
  store i32 %52, ptr %19, align 4
  %53 = getelementptr inbounds [4 x i32], ptr %17, i64 0, i64 2
  %54 = load i32, ptr %53, align 8
  %55 = load i32, ptr %18, align 4
  %56 = sub nsw i32 %54, %55
  store i32 %56, ptr %20, align 4
  %57 = getelementptr inbounds [4 x i32], ptr %17, i64 0, i64 3
  %58 = load i32, ptr %57, align 4
  %59 = load i32, ptr %19, align 4
  %60 = sub nsw i32 %58, %59
  store i32 %60, ptr %21, align 4
  %61 = load ptr, ptr %13, align 8
  %62 = ptrtoint ptr %61 to i64
  %63 = load i32, ptr %19, align 4
  %64 = sext i32 %63 to i64
  %65 = load i32, ptr %16, align 4
  %66 = sext i32 %65 to i64
  %67 = mul nsw i64 %64, %66
  %68 = load i32, ptr %18, align 4
  %69 = sext i32 %68 to i64
  %70 = mul nsw i64 %69, 0
  %71 = add nsw i64 %67, %70
  %72 = add nsw i64 %62, %71
  %73 = inttoptr i64 %72 to ptr
  store ptr %73, ptr %22, align 8
  br label %74

74:                                               ; preds = %141, %48
  %75 = load i32, ptr %18, align 4
  %76 = load ptr, ptr %7, align 8
  %77 = getelementptr inbounds %struct.SurfaceDataRasInfo, ptr %76, i32 0, i32 2
  %78 = load i32, ptr %77, align 8
  %79 = sdiv i32 %78, 2
  %80 = add nsw i32 %75, %79
  store i32 %80, ptr %23, align 4
  %81 = load i32, ptr %23, align 4
  %82 = sdiv i32 %81, 4
  store i32 %82, ptr %24, align 4
  %83 = load i32, ptr %23, align 4
  %84 = srem i32 %83, 4
  %85 = mul nsw i32 %84, 2
  %86 = sub nsw i32 6, %85
  store i32 %86, ptr %25, align 4
  %87 = load ptr, ptr %22, align 8
  %88 = load i32, ptr %24, align 4
  %89 = sext i32 %88 to i64
  %90 = getelementptr inbounds i8, ptr %87, i64 %89
  %91 = load i8, ptr %90, align 1
  %92 = zext i8 %91 to i32
  store i32 %92, ptr %26, align 4
  %93 = load i32, ptr %20, align 4
  store i32 %93, ptr %27, align 4
  br label %94

94:                                               ; preds = %124, %74
  br label %95

95:                                               ; preds = %94
  %96 = load i32, ptr %25, align 4
  %97 = icmp slt i32 %96, 0
  br i1 %97, label %98, label %112

98:                                               ; preds = %95
  %99 = load i32, ptr %26, align 4
  %100 = trunc i32 %99 to i8
  %101 = load ptr, ptr %22, align 8
  %102 = load i32, ptr %24, align 4
  %103 = sext i32 %102 to i64
  %104 = getelementptr inbounds i8, ptr %101, i64 %103
  store i8 %100, ptr %104, align 1
  %105 = load ptr, ptr %22, align 8
  %106 = load i32, ptr %24, align 4
  %107 = add nsw i32 %106, 1
  store i32 %107, ptr %24, align 4
  %108 = sext i32 %107 to i64
  %109 = getelementptr inbounds i8, ptr %105, i64 %108
  %110 = load i8, ptr %109, align 1
  %111 = zext i8 %110 to i32
  store i32 %111, ptr %26, align 4
  store i32 6, ptr %25, align 4
  br label %112

112:                                              ; preds = %98, %95
  br label %113

113:                                              ; preds = %112
  %114 = load i32, ptr %10, align 4
  %115 = load i32, ptr %14, align 4
  %116 = xor i32 %114, %115
  %117 = and i32 %116, 3
  %118 = load i32, ptr %25, align 4
  %119 = shl i32 %117, %118
  %120 = load i32, ptr %26, align 4
  %121 = xor i32 %120, %119
  store i32 %121, ptr %26, align 4
  %122 = load i32, ptr %25, align 4
  %123 = sub nsw i32 %122, 2
  store i32 %123, ptr %25, align 4
  br label %124

124:                                              ; preds = %113
  %125 = load i32, ptr %27, align 4
  %126 = add nsw i32 %125, -1
  store i32 %126, ptr %27, align 4
  %127 = icmp sgt i32 %126, 0
  br i1 %127, label %94, label %128, !llvm.loop !16

128:                                              ; preds = %124
  %129 = load i32, ptr %26, align 4
  %130 = trunc i32 %129 to i8
  %131 = load ptr, ptr %22, align 8
  %132 = load i32, ptr %24, align 4
  %133 = sext i32 %132 to i64
  %134 = getelementptr inbounds i8, ptr %131, i64 %133
  store i8 %130, ptr %134, align 1
  %135 = load ptr, ptr %22, align 8
  %136 = ptrtoint ptr %135 to i64
  %137 = load i32, ptr %16, align 4
  %138 = sext i32 %137 to i64
  %139 = add nsw i64 %136, %138
  %140 = inttoptr i64 %139 to ptr
  store ptr %140, ptr %22, align 8
  br label %141

141:                                              ; preds = %128
  %142 = load i32, ptr %21, align 4
  %143 = add i32 %142, -1
  store i32 %143, ptr %21, align 4
  %144 = icmp ugt i32 %143, 0
  br i1 %144, label %74, label %145, !llvm.loop !17

145:                                              ; preds = %141
  br label %40, !llvm.loop !18

146:                                              ; preds = %40
  ret void
}