; Function Attrs: nounwind uwtable
define hidden void @ByteBinary2BitXorSpans(ptr nocapture noundef readonly %0, ptr nocapture noundef readonly %1, ptr noundef %2, i32 noundef %3, ptr nocapture readnone %4, ptr nocapture noundef readonly %5) #1 {
  %7 = alloca [4 x i32], align 16
  %8 = getelementptr inbounds i8, ptr %0, i64 16
  %9 = load ptr, ptr %8, align 8
  %10 = getelementptr inbounds i8, ptr %5, i64 4
  %11 = load i32, ptr %10, align 4
  %12 = getelementptr inbounds i8, ptr %0, i64 32
  %13 = load i32, ptr %12, align 8
  %14 = getelementptr inbounds i8, ptr %1, i64 32
  %15 = load ptr, ptr %14, align 8
  %16 = call zeroext i8 %15(ptr noundef %2, ptr noundef nonnull %7) #5
  %.not46 = icmp eq i8 %16, 0
  br i1 %.not46, label %._crit_edge, label %.lr.ph

.lr.ph:                                           ; preds = %6
  %17 = getelementptr inbounds i8, ptr %7, i64 4
  %18 = getelementptr inbounds i8, ptr %7, i64 8
  %19 = getelementptr inbounds i8, ptr %7, i64 12
  %20 = ptrtoint ptr %9 to i64
  %21 = sext i32 %13 to i64
  %22 = getelementptr inbounds i8, ptr %0, i64 24
  %23 = xor i32 %11, %3
  %24 = and i32 %23, 3
  br label %25

25:                                               ; preds = %.lr.ph, %70
  %26 = load i32, ptr %7, align 16
  %27 = load i32, ptr %17, align 4
  %28 = load i32, ptr %18, align 8
  %29 = sub nsw i32 %28, %26
  %30 = load i32, ptr %19, align 4
  %31 = sub nsw i32 %30, %27
  %32 = sext i32 %27 to i64
  %33 = mul nsw i64 %32, %21
  %34 = add nsw i64 %33, %20
  br label %35

35:                                               ; preds = %64, %25
  %.042.in = phi i64 [ %34, %25 ], [ %68, %64 ]
  %.041 = phi i32 [ %31, %25 ], [ %69, %64 ]
  %.042 = inttoptr i64 %.042.in to ptr
  %36 = load i32, ptr %22, align 8
  %37 = sdiv i32 %36, 2
  %38 = add nsw i32 %37, %26
  %39 = sdiv i32 %38, 4
  %40 = srem i32 %38, 4
  %41 = shl nsw i32 %40, 1
  %42 = sub nsw i32 6, %41
  %43 = sext i32 %39 to i64
  %44 = getelementptr inbounds i8, ptr %.042, i64 %43
  %45 = load i8, ptr %44, align 1
  %46 = zext i8 %45 to i32
  br label %47

47:                                               ; preds = %58, %35
  %.039 = phi i32 [ %39, %35 ], [ %.140, %58 ]
  %.037 = phi i32 [ %42, %35 ], [ %61, %58 ]
  %.036 = phi i32 [ %46, %35 ], [ %60, %58 ]
  %.0 = phi i32 [ %29, %35 ], [ %62, %58 ]
  %48 = icmp slt i32 %.037, 0
  br i1 %48, label %49, label %58

49:                                               ; preds = %47
  %50 = trunc i32 %.036 to i8
  %51 = sext i32 %.039 to i64
  %52 = getelementptr inbounds i8, ptr %.042, i64 %51
  store i8 %50, ptr %52, align 1
  %53 = add nsw i32 %.039, 1
  %54 = sext i32 %53 to i64
  %55 = getelementptr inbounds i8, ptr %.042, i64 %54
  %56 = load i8, ptr %55, align 1
  %57 = zext i8 %56 to i32
  br label %58

58:                                               ; preds = %47, %49
  %.140 = phi i32 [ %53, %49 ], [ %.039, %47 ]
  %.138 = phi i32 [ 6, %49 ], [ %.037, %47 ]
  %.1 = phi i32 [ %57, %49 ], [ %.036, %47 ]
  %59 = shl nuw nsw i32 %24, %.138
  %60 = xor i32 %.1, %59
  %61 = add nsw i32 %.138, -2
  %62 = add nsw i32 %.0, -1
  %63 = icmp sgt i32 %.0, 1
  br i1 %63, label %47, label %64, !llvm.loop !16

64:                                               ; preds = %58
  %65 = trunc i32 %60 to i8
  %66 = sext i32 %.140 to i64
  %67 = getelementptr inbounds i8, ptr %.042, i64 %66
  store i8 %65, ptr %67, align 1
  %68 = add nsw i64 %.042.in, %21
  %69 = add i32 %.041, -1
  %.not45 = icmp eq i32 %69, 0
  br i1 %.not45, label %70, label %35, !llvm.loop !17

70:                                               ; preds = %64
  %71 = load ptr, ptr %14, align 8
  %72 = call zeroext i8 %71(ptr noundef %2, ptr noundef nonnull %7) #5
  %.not = icmp eq i8 %72, 0
  br i1 %.not, label %._crit_edge, label %25, !llvm.loop !18

._crit_edge:                                      ; preds = %70, %6
  ret void
}